target datalayout = "e-m:e-p270:32:32-p271:32:32-p272:64:64-i64:64-i128:128-f80:128-n8:16:32:64-S128"
target triple = "x86_64-pc-linux-gnu"

%"class.__cxxabiv1::(anonymous namespace)::st_terminate" = type { i8 }

; Function Attrs: mustprogress nounwind uwtable
define internal void @_ZN10__cxxabiv112_GLOBAL__N_112st_terminate7releaseEv(ptr noundef nonnull align 1 dereferenceable(1) %0) #4 align 2 {
  %2 = alloca ptr, align 8
  store ptr %0, ptr %2, align 8, !tbaa !42
  %3 = load ptr, ptr %2, align 8
  %4 = getelementptr inbounds nuw %"class.__cxxabiv1::(anonymous namespace)::st_terminate", ptr %3, i32 0, i32 0
  store i8 0, ptr %4, align 1, !tbaa !45
  ret void
}

; Function Attrs: mustprogress nounwind uwtable
define internal void @_ZN10__cxxabiv112_GLOBAL__N_112st_terminateD2Ev(ptr noundef nonnull align 1 dereferenceable(1) %0) unnamed_addr #4 align 2 {
  %2 = alloca ptr, align 8
  store ptr %0, ptr %2, align 8, !tbaa !42
  %3 = load ptr, ptr %2, align 8
  %4 = getelementptr inbounds nuw %"class.__cxxabiv1::(anonymous namespace)::st_terminate", ptr %3, i32 0, i32 0
  %5 = load i8, ptr %4, align 1, !tbaa !45, !range !21, !noundef !22
  %6 = trunc i8 %5 to i1
  br i1 %6, label %7, label %8

7:                                                ; preds = %1
  call void @_ZSt9terminatev() #12
  unreachable

8:                                                ; preds = %1
  ret void
}

; Function Attrs: mustprogress nounwind uwtable
define internal void @_ZN10__cxxabiv112_GLOBAL__N_112st_terminateC2Eb(ptr noundef nonnull align 1 dereferenceable(1) %0, i1 noundef zeroext %1) unnamed_addr #4 align 2 {
  %3 = alloca ptr, align 8
  %4 = alloca i8, align 1
  store ptr %0, ptr %3, align 8, !tbaa !42
  %5 = zext i1 %1 to i8
  store i8 %5, ptr %4, align 1, !tbaa !44
  %6 = load ptr, ptr %3, align 8
  %7 = getelementptr inbounds nuw %"class.__cxxabiv1::(anonymous namespace)::st_terminate", ptr %6, i32 0, i32 0
  %8 = load i8, ptr %4, align 1, !tbaa !44, !range !21, !noundef !22
  %9 = trunc i8 %8 to i1
  %10 = zext i1 %9 to i8
  store i8 %10, ptr %7, align 1, !tbaa !45
  ret void
}

; Function Attrs: mustprogress uwtable
define dso_local void @__cxa_vec_cleanup(ptr noundef %0, i64 noundef %1, i64 noundef %2, ptr noundef %3) #0 personality ptr @__gxx_personality_v0 {
  %5 = alloca ptr, align 8
  %6 = alloca i64, align 8
  %7 = alloca i64, align 8
  %8 = alloca ptr, align 8
  %9 = alloca ptr, align 8
  %10 = alloca i64, align 8
  %11 = alloca %"class.__cxxabiv1::(anonymous namespace)::st_terminate", align 1
  %12 = alloca ptr, align 8
  %13 = alloca i32, align 4
  store ptr %0, ptr %5, align 8, !tbaa !8
  store i64 %1, ptr %6, align 8, !tbaa !4
  store i64 %2, ptr %7, align 8, !tbaa !4
  store ptr %3, ptr %8, align 8, !tbaa !8
  %14 = load ptr, ptr %8, align 8, !tbaa !8
  %15 = icmp ne ptr null, %14
  br i1 %15, label %16, label %42

16:                                               ; preds = %4
  call void @llvm.lifetime.start.p0(i64 8, ptr %9) #10
  %17 = load ptr, ptr %5, align 8, !tbaa !8
  store ptr %17, ptr %9, align 8, !tbaa !10
  call void @llvm.lifetime.start.p0(i64 8, ptr %10) #10
  %18 = load i64, ptr %6, align 8, !tbaa !4
  store i64 %18, ptr %10, align 8, !tbaa !4
  call void @llvm.lifetime.start.p0(i64 1, ptr %11) #10
  call void @_ZN10__cxxabiv112_GLOBAL__N_112st_terminateC2Eb(ptr noundef nonnull align 1 dereferenceable(1) %11, i1 noundef zeroext true)
  %19 = load i64, ptr %6, align 8, !tbaa !4
  %20 = load i64, ptr %7, align 8, !tbaa !4
  %21 = mul i64 %19, %20
  %22 = load ptr, ptr %9, align 8, !tbaa !10
  %23 = getelementptr inbounds nuw i8, ptr %22, i64 %21
  store ptr %23, ptr %9, align 8, !tbaa !10
  br label %24

24:                                               ; preds = %35, %16
  %25 = load i64, ptr %10, align 8, !tbaa !4
  %26 = add i64 %25, -1
  store i64 %26, ptr %10, align 8, !tbaa !4
  %27 = icmp ugt i64 %25, 0
  br i1 %27, label %28, label %40

28:                                               ; preds = %24
  %29 = load i64, ptr %7, align 8, !tbaa !4
  %30 = load ptr, ptr %9, align 8, !tbaa !10
  %31 = sub i64 0, %29
  %32 = getelementptr inbounds i8, ptr %30, i64 %31
  store ptr %32, ptr %9, align 8, !tbaa !10
  %33 = load ptr, ptr %8, align 8, !tbaa !8
  %34 = load ptr, ptr %9, align 8, !tbaa !10
  invoke void %33(ptr noundef %34)
          to label %35 unwind label %36

35:                                               ; preds = %28
  br label %24, !llvm.loop !47

36:                                               ; preds = %40, %28
  %37 = landingpad { ptr, i32 }
          cleanup
  %38 = extractvalue { ptr, i32 } %37, 0
  store ptr %38, ptr %12, align 8
  %39 = extractvalue { ptr, i32 } %37, 1
  store i32 %39, ptr %13, align 4
  call void @_ZN10__cxxabiv112_GLOBAL__N_112st_terminateD2Ev(ptr noundef nonnull align 1 dereferenceable(1) %11) #10
  call void @llvm.lifetime.end.p0(i64 1, ptr %11) #10
  call void @llvm.lifetime.end.p0(i64 8, ptr %10) #10
  call void @llvm.lifetime.end.p0(i64 8, ptr %9) #10
  br label %43

40:                                               ; preds = %24
  invoke void @_ZN10__cxxabiv112_GLOBAL__N_112st_terminate7releaseEv(ptr noundef nonnull align 1 dereferenceable(1) %11)
          to label %41 unwind label %36

41:                                               ; preds = %40
  call void @_ZN10__cxxabiv112_GLOBAL__N_112st_terminateD2Ev(ptr noundef nonnull align 1 dereferenceable(1) %11) #10
  call void @llvm.lifetime.end.p0(i64 1, ptr %11) #10
  call void @llvm.lifetime.end.p0(i64 8, ptr %10) #10
  call void @llvm.lifetime.end.p0(i64 8, ptr %9) #10
  br label %42

42:                                               ; preds = %41, %4
  ret void

43:                                               ; preds = %36
  %44 = load ptr, ptr %12, align 8
  %45 = load i32, ptr %13, align 4
  %46 = insertvalue { ptr, i32 } poison, ptr %44, 0
  %47 = insertvalue { ptr, i32 } %46, i32 %45, 1
  resume { ptr, i32 } %47
}