; Function Attrs: mustprogress uwtable
define dso_local void @__cxa_vec_cleanup(ptr noundef %0, i64 noundef %1, i64 noundef %2, ptr noundef readonly captures(address_is_null) %3) local_unnamed_addr #0 personality ptr @__gxx_personality_v0 {
  %.not = icmp eq ptr %3, null
  br i1 %.not, label %_ZN10__cxxabiv112_GLOBAL__N_112st_terminateD2Ev.exit16, label %5

5:                                                ; preds = %4
  %6 = mul i64 %2, %1
  %7 = getelementptr inbounds nuw i8, ptr %0, i64 %6
  %8 = sub i64 0, %2
  br label %9

9:                                                ; preds = %10, %5
  %.012 = phi i64 [ %1, %5 ], [ %11, %10 ]
  %.0 = phi ptr [ %7, %5 ], [ %12, %10 ]
  %.not14 = icmp eq i64 %.012, 0
  br i1 %.not14, label %_ZN10__cxxabiv112_GLOBAL__N_112st_terminateD2Ev.exit16, label %10

10:                                               ; preds = %9
  %11 = add i64 %.012, -1
  %12 = getelementptr inbounds i8, ptr %.0, i64 %8
  invoke void %3(ptr noundef %12)
          to label %9 unwind label %13, !llvm.loop !23

13:                                               ; preds = %10
  %14 = landingpad { ptr, i32 }
          cleanup
  tail call void @_ZSt9terminatev() #13
  unreachable

_ZN10__cxxabiv112_GLOBAL__N_112st_terminateD2Ev.exit16: ; preds = %9, %4
  ret void
}